; ModuleID = 'source-C-CXX/14/1973.cpp'
source_filename = "source-C-CXX/14/1973.cpp"
target datalayout = "e-m:e-p270:32:32-p271:32:32-p272:64:64-i64:64-f80:128-n8:16:32:64-S128"
target triple = "x86_64-pc-linux-gnu"

%"class.std::ios_base::Init" = type { i8 }
%"class.std::basic_istream" = type { i32 (...)**, i64, %"class.std::basic_ios" }
%"class.std::basic_ios" = type { %"class.std::ios_base", %"class.std::basic_ostream"*, i8, i8, %"class.std::basic_streambuf"*, %"class.std::ctype"*, %"class.std::num_put"*, %"class.std::num_get"* }
%"class.std::ios_base" = type { i32 (...)**, i64, i64, i32, i32, i32, %"struct.std::ios_base::_Callback_list"*, %"struct.std::ios_base::_Words", [8 x %"struct.std::ios_base::_Words"], i32, %"struct.std::ios_base::_Words"*, %"class.std::locale" }
%"struct.std::ios_base::_Callback_list" = type { %"struct.std::ios_base::_Callback_list"*, void (i32, %"class.std::ios_base"*, i32)*, i32, i32 }
%"struct.std::ios_base::_Words" = type { i8*, i64 }
%"class.std::locale" = type { %"class.std::locale::_Impl"* }
%"class.std::locale::_Impl" = type { i32, %"class.std::locale::facet"**, i64, %"class.std::locale::facet"**, i8** }
%"class.std::locale::facet" = type <{ i32 (...)**, i32, [4 x i8] }>
%"class.std::basic_ostream" = type { i32 (...)**, %"class.std::basic_ios" }
%"class.std::basic_streambuf" = type { i32 (...)**, i8*, i8*, i8*, i8*, i8*, i8*, %"class.std::locale" }
%"class.std::ctype" = type <{ %"class.std::locale::facet.base", [4 x i8], %struct.__locale_struct*, i8, [7 x i8], i32*, i32*, i16*, i8, [256 x i8], [256 x i8], i8, [6 x i8] }>
%"class.std::locale::facet.base" = type <{ i32 (...)**, i32 }>
%struct.__locale_struct = type { [13 x %struct.__locale_data*], i16*, i32*, i32*, [13 x i8*] }
%struct.__locale_data = type opaque
%"class.std::num_put" = type { %"class.std::locale::facet.base", [4 x i8] }
%"class.std::num_get" = type { %"class.std::locale::facet.base", [4 x i8] }

@_ZStL8__ioinit = internal global %"class.std::ios_base::Init" zeroinitializer, align 1
@__dso_handle = external hidden global i8
@_ZSt3cin = external global %"class.std::basic_istream", align 8
@_ZSt4cout = external global %"class.std::basic_ostream", align 8
@llvm.global_ctors = appending global [1 x { i32, void ()*, i8* }] [{ i32, void ()*, i8* } { i32 65535, void ()* @_GLOBAL__sub_I_1973.cpp, i8* null }]

declare void @_ZNSt8ios_base4InitC1Ev(%"class.std::ios_base::Init"* nonnull align 1 dereferenceable(1)) unnamed_addr #0

; Function Attrs: nounwind
declare void @_ZNSt8ios_base4InitD1Ev(%"class.std::ios_base::Init"* nonnull align 1 dereferenceable(1)) unnamed_addr #1

; Function Attrs: nofree nounwind
declare i32 @__cxa_atexit(void (i8*)*, i8*, i8*) local_unnamed_addr #2

; Function Attrs: mustprogress norecurse sspstrong uwtable
define dso_local i32 @main() local_unnamed_addr #3 {
  %1 = alloca i32, align 4
  %2 = alloca [100 x [100 x i32]], align 16
  %3 = bitcast i32* %1 to i8*
  call void @llvm.lifetime.start.p0i8(i64 4, i8* nonnull %3) #7
  %4 = bitcast [100 x [100 x i32]]* %2 to i8*
  call void @llvm.lifetime.start.p0i8(i64 40000, i8* nonnull %4) #7
  %5 = call nonnull align 8 dereferenceable(16) %"class.std::basic_istream"* @_ZNSirsERi(%"class.std::basic_istream"* nonnull align 8 dereferenceable(16) @_ZSt3cin, i32* nonnull align 4 dereferenceable(4) %1)
  %6 = load i32, i32* %1, align 4, !tbaa !5
  %7 = icmp sgt i32 %6, 0
  br i1 %7, label %8, label %45

8:                                                ; preds = %0, %37
  %9 = phi i32 [ %38, %37 ], [ %6, %0 ]
  %10 = phi i64 [ %40, %37 ], [ 0, %0 ]
  %11 = icmp sgt i32 %9, 0
  br i1 %11, label %29, label %37

12:                                               ; preds = %37
  %13 = icmp sgt i32 %38, 0
  br i1 %13, label %14, label %45

14:                                               ; preds = %12
  %15 = zext i32 %38 to i64
  br label %16

16:                                               ; preds = %14, %26
  %17 = phi i64 [ 0, %14 ], [ %27, %26 ]
  br label %18

18:                                               ; preds = %16, %23
  %19 = phi i64 [ 0, %16 ], [ %24, %23 ]
  %20 = getelementptr inbounds [100 x [100 x i32]], [100 x [100 x i32]]* %2, i64 0, i64 %17, i64 %19
  %21 = load i32, i32* %20, align 4, !tbaa !5
  %22 = icmp eq i32 %21, 0
  br i1 %22, label %42, label %23

23:                                               ; preds = %18
  %24 = add nuw nsw i64 %19, 1
  %25 = icmp eq i64 %24, %15
  br i1 %25, label %26, label %18, !llvm.loop !9

26:                                               ; preds = %23
  %27 = add nuw nsw i64 %17, 1
  %28 = icmp eq i64 %27, %15
  br i1 %28, label %51, label %16, !llvm.loop !11

29:                                               ; preds = %8, %29
  %30 = phi i64 [ %33, %29 ], [ 0, %8 ]
  %31 = getelementptr inbounds [100 x [100 x i32]], [100 x [100 x i32]]* %2, i64 0, i64 %10, i64 %30
  %32 = call nonnull align 8 dereferenceable(16) %"class.std::basic_istream"* @_ZNSirsERi(%"class.std::basic_istream"* nonnull align 8 dereferenceable(16) @_ZSt3cin, i32* nonnull align 4 dereferenceable(4) %31)
  %33 = add nuw nsw i64 %30, 1
  %34 = load i32, i32* %1, align 4, !tbaa !5
  %35 = sext i32 %34 to i64
  %36 = icmp slt i64 %33, %35
  br i1 %36, label %29, label %37, !llvm.loop !12

37:                                               ; preds = %29, %8
  %38 = phi i32 [ %9, %8 ], [ %34, %29 ]
  %39 = sext i32 %38 to i64
  %40 = add nuw nsw i64 %10, 1
  %41 = icmp slt i64 %40, %39
  br i1 %41, label %8, label %12, !llvm.loop !13

42:                                               ; preds = %18
  %43 = trunc i64 %17 to i32
  %44 = trunc i64 %19 to i32
  br label %45

45:                                               ; preds = %0, %42, %12
  %46 = phi i32 [ %38, %12 ], [ %38, %42 ], [ %6, %0 ]
  %47 = phi i32 [ 0, %12 ], [ %43, %42 ], [ 0, %0 ]
  %48 = phi i32 [ undef, %12 ], [ %44, %42 ], [ undef, %0 ]
  %49 = sext i32 %48 to i64
  %50 = icmp slt i32 %47, %46
  br i1 %50, label %57, label %51

51:                                               ; preds = %26, %45
  %52 = phi i64 [ %49, %45 ], [ 0, %26 ]
  %53 = phi i32 [ %48, %45 ], [ undef, %26 ]
  %54 = phi i32 [ %47, %45 ], [ %38, %26 ]
  %55 = phi i32 [ %46, %45 ], [ %38, %26 ]
  %56 = zext i32 %54 to i64
  br label %70

57:                                               ; preds = %45
  %58 = zext i32 %47 to i64
  br label %59

59:                                               ; preds = %57, %64
  %60 = phi i64 [ %58, %57 ], [ %65, %64 ]
  %61 = getelementptr inbounds [100 x [100 x i32]], [100 x [100 x i32]]* %2, i64 0, i64 %60, i64 %49
  %62 = load i32, i32* %61, align 4, !tbaa !5
  %63 = icmp eq i32 %62, 0
  br i1 %63, label %64, label %68

64:                                               ; preds = %59
  %65 = add nuw nsw i64 %60, 1
  %66 = trunc i64 %65 to i32
  %67 = icmp sgt i32 %46, %66
  br i1 %67, label %59, label %70, !llvm.loop !15

68:                                               ; preds = %59
  %69 = trunc i64 %60 to i32
  br label %70

70:                                               ; preds = %64, %68, %51
  %71 = phi i64 [ %52, %51 ], [ %49, %68 ], [ %49, %64 ]
  %72 = phi i32 [ %53, %51 ], [ %48, %68 ], [ %48, %64 ]
  %73 = phi i32 [ %54, %51 ], [ %47, %68 ], [ %47, %64 ]
  %74 = phi i32 [ %55, %51 ], [ %46, %68 ], [ %46, %64 ]
  %75 = phi i64 [ %56, %51 ], [ %58, %68 ], [ %58, %64 ]
  %76 = phi i32 [ %54, %51 ], [ %69, %68 ], [ %46, %64 ]
  %77 = icmp slt i32 %72, %74
  br i1 %77, label %78, label %89

78:                                               ; preds = %70, %83
  %79 = phi i64 [ %84, %83 ], [ %71, %70 ]
  %80 = getelementptr inbounds [100 x [100 x i32]], [100 x [100 x i32]]* %2, i64 0, i64 %75, i64 %79
  %81 = load i32, i32* %80, align 4, !tbaa !5
  %82 = icmp eq i32 %81, 0
  br i1 %82, label %83, label %87

83:                                               ; preds = %78
  %84 = add nsw i64 %79, 1
  %85 = trunc i64 %84 to i32
  %86 = icmp eq i32 %74, %85
  br i1 %86, label %89, label %78, !llvm.loop !16

87:                                               ; preds = %78
  %88 = trunc i64 %79 to i32
  br label %89

89:                                               ; preds = %83, %87, %70
  %90 = phi i32 [ %72, %70 ], [ %88, %87 ], [ %74, %83 ]
  %91 = sub i32 -2, %73
  %92 = add i32 %91, %76
  %93 = sub i32 -2, %72
  %94 = add i32 %93, %90
  %95 = mul nsw i32 %94, %92
  %96 = call nonnull align 8 dereferenceable(8) %"class.std::basic_ostream"* @_ZNSolsEi(%"class.std::basic_ostream"* nonnull align 8 dereferenceable(8) @_ZSt4cout, i32 %95)
  %97 = bitcast %"class.std::basic_ostream"* %96 to i8**
  %98 = load i8*, i8** %97, align 8, !tbaa !17
  %99 = getelementptr i8, i8* %98, i64 -24
  %100 = bitcast i8* %99 to i64*
  %101 = load i64, i64* %100, align 8
  %102 = bitcast %"class.std::basic_ostream"* %96 to i8*
  %103 = add nsw i64 %101, 240
  %104 = getelementptr inbounds i8, i8* %102, i64 %103
  %105 = bitcast i8* %104 to %"class.std::ctype"**
  %106 = load %"class.std::ctype"*, %"class.std::ctype"** %105, align 8, !tbaa !19
  %107 = icmp eq %"class.std::ctype"* %106, null
  br i1 %107, label %108, label %109

108:                                              ; preds = %89
  call void @_ZSt16__throw_bad_castv() #8
  unreachable

109:                                              ; preds = %89
  %110 = getelementptr inbounds %"class.std::ctype", %"class.std::ctype"* %106, i64 0, i32 8
  %111 = load i8, i8* %110, align 8, !tbaa !23
  %112 = icmp eq i8 %111, 0
  br i1 %112, label %116, label %113

113:                                              ; preds = %109
  %114 = getelementptr inbounds %"class.std::ctype", %"class.std::ctype"* %106, i64 0, i32 9, i64 10
  %115 = load i8, i8* %114, align 1, !tbaa !25
  br label %122

116:                                              ; preds = %109
  call void @_ZNKSt5ctypeIcE13_M_widen_initEv(%"class.std::ctype"* nonnull align 8 dereferenceable(570) %106)
  %117 = bitcast %"class.std::ctype"* %106 to i8 (%"class.std::ctype"*, i8)***
  %118 = load i8 (%"class.std::ctype"*, i8)**, i8 (%"class.std::ctype"*, i8)*** %117, align 8, !tbaa !17
  %119 = getelementptr inbounds i8 (%"class.std::ctype"*, i8)*, i8 (%"class.std::ctype"*, i8)** %118, i64 6
  %120 = load i8 (%"class.std::ctype"*, i8)*, i8 (%"class.std::ctype"*, i8)** %119, align 8
  %121 = call signext i8 %120(%"class.std::ctype"* nonnull align 8 dereferenceable(570) %106, i8 signext 10)
  br label %122

122:                                              ; preds = %113, %116
  %123 = phi i8 [ %115, %113 ], [ %121, %116 ]
  %124 = call nonnull align 8 dereferenceable(8) %"class.std::basic_ostream"* @_ZNSo3putEc(%"class.std::basic_ostream"* nonnull align 8 dereferenceable(8) %96, i8 signext %123)
  %125 = call nonnull align 8 dereferenceable(8) %"class.std::basic_ostream"* @_ZNSo5flushEv(%"class.std::basic_ostream"* nonnull align 8 dereferenceable(8) %124)
  call void @llvm.lifetime.end.p0i8(i64 40000, i8* nonnull %4) #7
  call void @llvm.lifetime.end.p0i8(i64 4, i8* nonnull %3) #7
  ret i32 0
}

; Function Attrs: argmemonly mustprogress nofree nosync nounwind willreturn
declare void @llvm.lifetime.start.p0i8(i64 immarg, i8* nocapture) #4

declare nonnull align 8 dereferenceable(16) %"class.std::basic_istream"* @_ZNSirsERi(%"class.std::basic_istream"* nonnull align 8 dereferenceable(16), i32* nonnull align 4 dereferenceable(4)) local_unnamed_addr #0

declare nonnull align 8 dereferenceable(8) %"class.std::basic_ostream"* @_ZNSolsEi(%"class.std::basic_ostream"* nonnull align 8 dereferenceable(8), i32) local_unnamed_addr #0

; Function Attrs: argmemonly mustprogress nofree nosync nounwind willreturn
declare void @llvm.lifetime.end.p0i8(i64 immarg, i8* nocapture) #4

declare nonnull align 8 dereferenceable(8) %"class.std::basic_ostream"* @_ZNSo3putEc(%"class.std::basic_ostream"* nonnull align 8 dereferenceable(8), i8 signext) local_unnamed_addr #0

declare nonnull align 8 dereferenceable(8) %"class.std::basic_ostream"* @_ZNSo5flushEv(%"class.std::basic_ostream"* nonnull align 8 dereferenceable(8)) local_unnamed_addr #0

; Function Attrs: noreturn
declare void @_ZSt16__throw_bad_castv() local_unnamed_addr #5

declare void @_ZNKSt5ctypeIcE13_M_widen_initEv(%"class.std::ctype"* nonnull align 8 dereferenceable(570)) local_unnamed_addr #0

; Function Attrs: sspstrong uwtable
define internal void @_GLOBAL__sub_I_1973.cpp() #6 section ".text.startup" {
  tail call void @_ZNSt8ios_base4InitC1Ev(%"class.std::ios_base::Init"* nonnull align 1 dereferenceable(1) @_ZStL8__ioinit)
  %1 = tail call i32 @__cxa_atexit(void (i8*)* bitcast (void (%"class.std::ios_base::Init"*)* @_ZNSt8ios_base4InitD1Ev to void (i8*)*), i8* getelementptr inbounds (%"class.std::ios_base::Init", %"class.std::ios_base::Init"* @_ZStL8__ioinit, i64 0, i32 0), i8* nonnull @__dso_handle) #7
  ret void
}


!llvm.module.flags = !{!0, !1, !2, !3}
!llvm.ident = !{!4}

!0 = !{i32 1, !"wchar_size", i32 4}
!1 = !{i32 7, !"PIC Level", i32 2}
!2 = !{i32 7, !"PIE Level", i32 2}
!3 = !{i32 7, !"uwtable", i32 1}
!4 = !{!"clang version 13.0.0"}
!5 = !{!6, !6, i64 0}
!6 = !{!"int", !7, i64 0}
!7 = !{!"omnipotent char", !8, i64 0}
!8 = !{!"Simple C++ TBAA"}
!9 = distinct !{!9, !10}
!10 = !{!"llvm.loop.mustprogress"}
!11 = distinct !{!11, !10}
!12 = distinct !{!12, !10}
!13 = distinct !{!13, !10, !14}
!14 = !{!"llvm.loop.unswitch.partial.disable"}
!15 = distinct !{!15, !10}
!16 = distinct !{!16, !10}
!17 = !{!18, !18, i64 0}
!18 = !{!"vtable pointer", !8, i64 0}
!19 = !{!20, !21, i64 240}
!20 = !{!"_ZTSSt9basic_iosIcSt11char_traitsIcEE", !21, i64 216, !7, i64 224, !22, i64 225, !21, i64 232, !21, i64 240, !21, i64 248, !21, i64 256}
!21 = !{!"any pointer", !7, i64 0}
!22 = !{!"bool", !7, i64 0}
!23 = !{!24, !7, i64 56}
!24 = !{!"_ZTSSt5ctypeIcE", !21, i64 16, !22, i64 24, !21, i64 32, !21, i64 40, !21, i64 48, !7, i64 56, !7, i64 57, !7, i64 313, !7, i64 569}
!25 = !{!7, !7, i64 0}
